# SymbolsHelper-Confirmed: 0.2.6 amd64 armel armhf hppa hurd-i386 i386 m68k mips64el mipsel powerpc ppc64el riscv64 sh4 sparc64 x32
libmarisa.so.0 libmarisa0 #MINVER#
* Build-Depends-Package: libmarisa-dev
 _ZN6marisa10scoped_ptrINS_8grimoire4trie9LoudsTrieEED1Ev@Base 0.2.6
 _ZN6marisa10scoped_ptrINS_8grimoire4trie9LoudsTrieEED2Ev@Base 0.2.6
 _ZN6marisa12scoped_arrayINS0_IcEEED1Ev@Base 0.2.6
 _ZN6marisa12scoped_arrayINS0_IcEEED2Ev@Base 0.2.6
 (subst)_ZN6marisa4Trie3mapEPKv{size_t}@Base 0.2.6
 _ZN6marisa4Trie4loadEPKc@Base 0.2.6
 _ZN6marisa4Trie4mmapEPKc@Base 0.2.6
 _ZN6marisa4Trie4readEi@Base 0.2.6
 _ZN6marisa4Trie4swapERS0_@Base 0.2.6
 _ZN6marisa4Trie5buildERNS_6KeysetEi@Base 0.2.6
 _ZN6marisa4Trie5clearEv@Base 0.2.6
 _ZN6marisa4TrieC1Ev@Base 0.2.6
 _ZN6marisa4TrieC2Ev@Base 0.2.6
 _ZN6marisa4TrieD1Ev@Base 0.2.6
 _ZN6marisa4TrieD2Ev@Base 0.2.6
 _ZN6marisa4readERSiPNS_4TrieE@Base 0.2.6
 _ZN6marisa5Agent10init_stateEv@Base 0.2.6
 _ZN6marisa5Agent4swapERS0_@Base 0.2.6
 _ZN6marisa5Agent5clearEv@Base 0.2.6
 _ZN6marisa5Agent9set_queryEPKc@Base 0.2.6
 (subst)_ZN6marisa5Agent9set_queryEPKc{size_t}@Base 0.2.6
 (subst)_ZN6marisa5Agent9set_queryE{size_t}@Base 0.2.6
 _ZN6marisa5AgentC1Ev@Base 0.2.6
 _ZN6marisa5AgentC2Ev@Base 0.2.6
 _ZN6marisa5AgentD1Ev@Base 0.2.6
 _ZN6marisa5AgentD2Ev@Base 0.2.6
 _ZN6marisa5freadEP8_IO_FILEPNS_4TrieE@Base 0.2.6
 _ZN6marisa5writeERSoRKNS_4TrieE@Base 0.2.6
 _ZN6marisa6Keyset16append_key_blockEv@Base 0.2.6
 _ZN6marisa6Keyset17append_base_blockEv@Base 0.2.6
 (subst)_ZN6marisa6Keyset18append_extra_blockE{size_t}@Base 0.2.6
 _ZN6marisa6Keyset4swapERS0_@Base 0.2.6
 _ZN6marisa6Keyset5clearEv@Base 0.2.6
 _ZN6marisa6Keyset5resetEv@Base 0.2.6
 (subst)_ZN6marisa6Keyset7reserveE{size_t}@Base 0.2.6
 _ZN6marisa6Keyset9push_backEPKc@Base 0.2.6
 (subst)_ZN6marisa6Keyset9push_backEPKc{size_t}f@Base 0.2.6
 _ZN6marisa6Keyset9push_backERKNS_3KeyE@Base 0.2.6
 _ZN6marisa6Keyset9push_backERKNS_3KeyEc@Base 0.2.6
 _ZN6marisa6KeysetC1Ev@Base 0.2.6
 _ZN6marisa6KeysetC2Ev@Base 0.2.6
 _ZN6marisa6KeysetD1Ev@Base 0.2.6
 _ZN6marisa6KeysetD2Ev@Base 0.2.6
 _ZN6marisa6fwriteEP8_IO_FILERKNS_4TrieE@Base 0.2.6
 _ZN6marisa8grimoire2io6Mapper4openEPKc@Base 0.2.6
 (subst)_ZN6marisa8grimoire2io6Mapper4openEPKv{size_t}@Base 0.2.6
 (subst)_ZN6marisa8grimoire2io6Mapper4seekE{size_t}@Base 0.2.6
 _ZN6marisa8grimoire2io6Mapper4swapERS2_@Base 0.2.6
 _ZN6marisa8grimoire2io6Mapper5clearEv@Base 0.2.6
 _ZN6marisa8grimoire2io6Mapper5open_EPKc@Base 0.2.6
 (subst)_ZN6marisa8grimoire2io6Mapper5open_EPKv{size_t}@Base 0.2.6
 (subst)_ZN6marisa8grimoire2io6Mapper8map_dataE{size_t}@Base 0.2.6
 _ZN6marisa8grimoire2io6MapperC1Ev@Base 0.2.6
 _ZN6marisa8grimoire2io6MapperC2Ev@Base 0.2.6
 _ZN6marisa8grimoire2io6MapperD1Ev@Base 0.2.6
 _ZN6marisa8grimoire2io6MapperD2Ev@Base 0.2.6
 _ZN6marisa8grimoire2io6Reader4openEP8_IO_FILE@Base 0.2.6
 _ZN6marisa8grimoire2io6Reader4openEPKc@Base 0.2.6
 _ZN6marisa8grimoire2io6Reader4openERSi@Base 0.2.6
 _ZN6marisa8grimoire2io6Reader4openEi@Base 0.2.6
 (subst)_ZN6marisa8grimoire2io6Reader4seekE{size_t}@Base 0.2.6
 _ZN6marisa8grimoire2io6Reader4swapERS2_@Base 0.2.6
 _ZN6marisa8grimoire2io6Reader5clearEv@Base 0.2.6
 _ZN6marisa8grimoire2io6Reader5open_EP8_IO_FILE@Base 0.2.6
 _ZN6marisa8grimoire2io6Reader5open_EPKc@Base 0.2.6
 _ZN6marisa8grimoire2io6Reader5open_ERSi@Base 0.2.6
 _ZN6marisa8grimoire2io6Reader5open_Ei@Base 0.2.6
 (subst)_ZN6marisa8grimoire2io6Reader9read_dataEPv{size_t}@Base 0.2.6
 _ZN6marisa8grimoire2io6ReaderC1Ev@Base 0.2.6
 _ZN6marisa8grimoire2io6ReaderC2Ev@Base 0.2.6
 _ZN6marisa8grimoire2io6ReaderD1Ev@Base 0.2.6
 _ZN6marisa8grimoire2io6ReaderD2Ev@Base 0.2.6
 (subst)_ZN6marisa8grimoire2io6Writer10write_dataEPKv{size_t}@Base 0.2.6
 _ZN6marisa8grimoire2io6Writer4openEP8_IO_FILE@Base 0.2.6
 _ZN6marisa8grimoire2io6Writer4openEPKc@Base 0.2.6
 _ZN6marisa8grimoire2io6Writer4openERSo@Base 0.2.6
 _ZN6marisa8grimoire2io6Writer4openEi@Base 0.2.6
 (subst)_ZN6marisa8grimoire2io6Writer4seekE{size_t}@Base 0.2.6
 _ZN6marisa8grimoire2io6Writer4swapERS2_@Base 0.2.6
 _ZN6marisa8grimoire2io6Writer5clearEv@Base 0.2.6
 _ZN6marisa8grimoire2io6Writer5open_EP8_IO_FILE@Base 0.2.6
 _ZN6marisa8grimoire2io6Writer5open_EPKc@Base 0.2.6
 _ZN6marisa8grimoire2io6Writer5open_ERSo@Base 0.2.6
 _ZN6marisa8grimoire2io6Writer5open_Ei@Base 0.2.6
 _ZN6marisa8grimoire2io6WriterC1Ev@Base 0.2.6
 _ZN6marisa8grimoire2io6WriterC2Ev@Base 0.2.6
 _ZN6marisa8grimoire2io6WriterD1Ev@Base 0.2.6
 _ZN6marisa8grimoire2io6WriterD2Ev@Base 0.2.6
 _ZN6marisa8grimoire4trie4Tail3mapERNS0_2io6MapperE@Base 0.2.6
 _ZN6marisa8grimoire4trie4Tail4map_ERNS0_2io6MapperE@Base 0.2.6
 _ZN6marisa8grimoire4trie4Tail4readERNS0_2io6ReaderE@Base 0.2.6
 _ZN6marisa8grimoire4trie4Tail4swapERS2_@Base 0.2.6
 _ZN6marisa8grimoire4trie4Tail5buildERNS0_6vector6VectorINS1_5EntryEEEPNS4_IjEE17marisa_tail_mode_@Base 0.2.6
 _ZN6marisa8grimoire4trie4Tail5clearEv@Base 0.2.6
 _ZN6marisa8grimoire4trie4Tail5read_ERNS0_2io6ReaderE@Base 0.2.6
 _ZN6marisa8grimoire4trie4Tail6build_ERNS0_6vector6VectorINS1_5EntryEEEPNS4_IjEE17marisa_tail_mode_@Base 0.2.6
 _ZN6marisa8grimoire4trie4TailC1Ev@Base 0.2.6
 _ZN6marisa8grimoire4trie4TailC2Ev@Base 0.2.6
 _ZN6marisa8grimoire4trie4TailD1Ev@Base 0.2.6
 _ZN6marisa8grimoire4trie4TailD2Ev@Base 0.2.6
 _ZN6marisa8grimoire4trie6Config5parseEi@Base 0.2.6
 (subst)_ZN6marisa8grimoire4trie9LoudsTrie10build_trieINS1_10ReverseKeyEEEvRNS0_6vector6VectorIT_EEPNS6_IjEERKNS1_6ConfigE{size_t}@Base 0.2.6
 (subst)_ZN6marisa8grimoire4trie9LoudsTrie10build_trieINS1_3KeyEEEvRNS0_6vector6VectorIT_EEPNS6_IjEERKNS1_6ConfigE{size_t}@Base 0.2.6
 _ZN6marisa8grimoire4trie9LoudsTrie10fill_cacheEv@Base 0.2.6
 (subst)_ZN6marisa8grimoire4trie9LoudsTrie13reserve_cacheERKNS1_6ConfigE{size_t}{size_t}@Base 0.2.6
 (subst)_ZN6marisa8grimoire4trie9LoudsTrie15build_next_trieINS1_10ReverseKeyEEEvRNS0_6vector6VectorIT_EEPNS6_IjEERKNS1_6ConfigE{size_t}@Base 0.2.6
 (subst)_ZN6marisa8grimoire4trie9LoudsTrie15build_next_trieINS1_3KeyEEEvRNS0_6vector6VectorIT_EEPNS6_IjEERKNS1_6ConfigE{size_t}@Base 0.2.6
 (subst)_ZN6marisa8grimoire4trie9LoudsTrie18build_current_trieINS1_10ReverseKeyEEEvRNS0_6vector6VectorIT_EEPNS6_IjEERKNS1_6ConfigE{size_t}@Base 0.2.6
 (subst)_ZN6marisa8grimoire4trie9LoudsTrie18build_current_trieINS1_3KeyEEEvRNS0_6vector6VectorIT_EEPNS6_IjEERKNS1_6ConfigE{size_t}@Base 0.2.6
 _ZN6marisa8grimoire4trie9LoudsTrie3mapERNS0_2io6MapperE@Base 0.2.6
 _ZN6marisa8grimoire4trie9LoudsTrie4map_ERNS0_2io6MapperE@Base 0.2.6
 _ZN6marisa8grimoire4trie9LoudsTrie4readERNS0_2io6ReaderE@Base 0.2.6
 _ZN6marisa8grimoire4trie9LoudsTrie4swapERS2_@Base 0.2.6
 _ZN6marisa8grimoire4trie9LoudsTrie5buildERNS_6KeysetEi@Base 0.2.6
 (subst)_ZN6marisa8grimoire4trie9LoudsTrie5cacheINS1_10ReverseKeyEEEv{size_t}{size_t}fc@Base 0.2.6
 (subst)_ZN6marisa8grimoire4trie9LoudsTrie5cacheINS1_3KeyEEEv{size_t}{size_t}fc@Base 0.2.6
 _ZN6marisa8grimoire4trie9LoudsTrie5clearEv@Base 0.2.6
 _ZN6marisa8grimoire4trie9LoudsTrie5read_ERNS0_2io6ReaderE@Base 0.2.6
 _ZN6marisa8grimoire4trie9LoudsTrie6build_ERNS_6KeysetERKNS1_6ConfigE@Base 0.2.6
 _ZN6marisa8grimoire4trie9LoudsTrieC1Ev@Base 0.2.6
 _ZN6marisa8grimoire4trie9LoudsTrieC2Ev@Base 0.2.6
 _ZN6marisa8grimoire4trie9LoudsTrieD1Ev@Base 0.2.6
 _ZN6marisa8grimoire4trie9LoudsTrieD2Ev@Base 0.2.6
 (arch=alpha amd64 arm64 ia64 kfreebsd-amd64 mips64el ppc64 ppc64el riscv64 s390x sparc64)_ZN6marisa8grimoire6vector10FlatVector5buildERKNS1_6VectorIjEE@Base 0.2.6
 (arch=!alpha !amd64 !arm64 !ia64 !kfreebsd-amd64 !mips64el !ppc64 !ppc64el !riscv64 !s390x !sparc64)_ZN6marisa8grimoire6vector10FlatVector6build_ERKNS1_6VectorIjEE@Base 0.2.6
 (optional=templinst|arch=armel armhf hurd-i386 i386 m68k mipsel powerpc)_ZN6marisa8grimoire6vector6VectorINS0_4trie5CacheEE5read_ERNS0_2io6ReaderE@Base 0.2.6
 _ZN6marisa8grimoire6vector6VectorINS1_9RankIndexEE5read_ERNS0_2io6ReaderE@Base 0.2.6
 _ZN6marisa8grimoire6vector6VectorIjE3mapERNS0_2io6MapperE@Base 0.2.6
 _ZN6marisa8grimoire6vector6VectorIjE4readERNS0_2io6ReaderE@Base 0.2.6
 (arch=alpha amd64 arm64 ia64 kfreebsd-amd64 mips64el ppc64 ppc64el riscv64 s390x sparc64)_ZN6marisa8grimoire6vector6VectorImE3mapERNS0_2io6MapperE@Base 0.2.6
 (arch=alpha amd64 arm64 ia64 kfreebsd-amd64 mips64el ppc64 ppc64el riscv64 s390x sparc64)_ZN6marisa8grimoire6vector6VectorImE4readERNS0_2io6ReaderE@Base 0.2.6
 _ZN6marisa8grimoire6vector9BitVector11build_indexERKS2_bb@Base 0.2.6
 _ZN6marisa8grimoire6vector9BitVector3mapERNS0_2io6MapperE@Base 0.2.6
 _ZN6marisa8grimoire6vector9BitVector4readERNS0_2io6ReaderE@Base 0.2.6
 _ZN6marisa8grimoire6vector9BitVector5buildEbb@Base 0.2.6
 (arch=mips64el ppc64 ppc64el riscv64 s390x)_ZN6marisa8grimoire6vector9BitVector5read_ERNS0_2io6ReaderE@Base 0.2.6
 _ZN6marisa8grimoire6vector9BitVectorD1Ev@Base 0.2.6
 _ZN6marisa8grimoire6vector9BitVectorD2Ev@Base 0.2.6
 (subst)_ZN6marisa8grimoire9algorithm7details14insertion_sortIPNS0_4trie10ReverseKeyEEE{size_t}T_S7_{size_t}@Base 0.2.6
 (subst)_ZN6marisa8grimoire9algorithm7details14insertion_sortIPNS0_4trie3KeyEEE{size_t}T_S7_{size_t}@Base 0.2.6
 (subst)_ZN6marisa8grimoire9algorithm7details4sortIPNS0_4trie10ReverseKeyEEE{size_t}T_S7_{size_t}@Base 0.2.6
 (subst)_ZN6marisa8grimoire9algorithm7details4sortIPNS0_4trie3KeyEEE{size_t}T_S7_{size_t}@Base 0.2.6
 _ZN6marisa9ExceptionD0Ev@Base 0.2.6
 _ZN6marisa9ExceptionD1Ev@Base 0.2.6
 _ZN6marisa9ExceptionD2Ev@Base 0.2.6
 _ZN6marisalsERSoRKNS_4TrieE@Base 0.2.6
 _ZN6marisarsERSiRNS_4TrieE@Base 0.2.6
 _ZNK6marisa4Trie10node_orderEv@Base 0.2.6
 _ZNK6marisa4Trie10total_sizeEv@Base 0.2.6
 _ZNK6marisa4Trie14reverse_lookupERNS_5AgentE@Base 0.2.6
 _ZNK6marisa4Trie17predictive_searchERNS_5AgentE@Base 0.2.6
 _ZNK6marisa4Trie20common_prefix_searchERNS_5AgentE@Base 0.2.6
 _ZNK6marisa4Trie4saveEPKc@Base 0.2.6
 _ZNK6marisa4Trie4sizeEv@Base 0.2.6
 _ZNK6marisa4Trie5emptyEv@Base 0.2.6
 _ZNK6marisa4Trie5writeEi@Base 0.2.6
 _ZNK6marisa4Trie6lookupERNS_5AgentE@Base 0.2.6
 _ZNK6marisa4Trie7io_sizeEv@Base 0.2.6
 _ZNK6marisa4Trie8num_keysEv@Base 0.2.6
 _ZNK6marisa4Trie9num_nodesEv@Base 0.2.6
 _ZNK6marisa4Trie9num_triesEv@Base 0.2.6
 _ZNK6marisa4Trie9tail_modeEv@Base 0.2.6
 _ZNK6marisa8grimoire2io6Mapper7is_openEv@Base 0.2.6
 _ZNK6marisa8grimoire2io6Reader7is_openEv@Base 0.2.6
 _ZNK6marisa8grimoire2io6Writer7is_openEv@Base 0.2.6
 (subst)_ZNK6marisa8grimoire4trie4Tail12prefix_matchERNS_5AgentE{size_t}@Base 0.2.6
 (subst)_ZNK6marisa8grimoire4trie4Tail5matchERNS_5AgentE{size_t}@Base 0.2.6
 _ZNK6marisa8grimoire4trie4Tail5writeERNS0_2io6WriterE@Base 0.2.6
 _ZNK6marisa8grimoire4trie4Tail6write_ERNS0_2io6WriterE@Base 0.2.6
 (subst)_ZNK6marisa8grimoire4trie4Tail7restoreERNS_5AgentE{size_t}@Base 0.2.6
 _ZNK6marisa8grimoire4trie9LoudsTrie10find_childERNS_5AgentE@Base 0.2.6
 _ZNK6marisa8grimoire4trie9LoudsTrie10total_sizeEv@Base 0.2.6
 (subst)_ZNK6marisa8grimoire4trie9LoudsTrie13prefix_match_ERNS_5AgentE{size_t}@Base 0.2.6
 _ZNK6marisa8grimoire4trie9LoudsTrie14reverse_lookupERNS_5AgentE@Base 0.2.6
 _ZNK6marisa8grimoire4trie9LoudsTrie17predictive_searchERNS_5AgentE@Base 0.2.6
 _ZNK6marisa8grimoire4trie9LoudsTrie20common_prefix_searchERNS_5AgentE@Base 0.2.6
 _ZNK6marisa8grimoire4trie9LoudsTrie21predictive_find_childERNS_5AgentE@Base 0.2.6
 _ZNK6marisa8grimoire4trie9LoudsTrie5writeERNS0_2io6WriterE@Base 0.2.6
 _ZNK6marisa8grimoire4trie9LoudsTrie6lookupERNS_5AgentE@Base 0.2.6
 (subst)_ZNK6marisa8grimoire4trie9LoudsTrie6match_ERNS_5AgentE{size_t}@Base 0.2.6
 _ZNK6marisa8grimoire4trie9LoudsTrie6write_ERNS0_2io6WriterE@Base 0.2.6
 _ZNK6marisa8grimoire4trie9LoudsTrie7io_sizeEv@Base 0.2.6
 (subst)_ZNK6marisa8grimoire4trie9LoudsTrie8restore_ERNS_5AgentE{size_t}@Base 0.2.6
 (subst)_ZNK6marisa8grimoire6vector9BitVector5rank1E{size_t}@Base 0.2.6
 _ZNK6marisa8grimoire6vector9BitVector6write_ERNS0_2io6WriterE@Base 0.2.6
 (subst)_ZNK6marisa8grimoire6vector9BitVector7select0E{size_t}@Base 0.2.6
 (subst)_ZNK6marisa8grimoire6vector9BitVector7select1E{size_t}@Base 0.2.6
 _ZNK6marisa9Exception4whatEv@Base 0.2.6
 (optional=templinst|arch=x32)_ZNSt11_Deque_baseIN6marisa8grimoire4trie5RangeESaIS3_EE17_M_initialize_mapEj@Base 0.2.6
 _ZNSt11_Deque_baseIN6marisa8grimoire4trie5RangeESaIS3_EED1Ev@Base 0.2.6
 _ZNSt11_Deque_baseIN6marisa8grimoire4trie5RangeESaIS3_EED2Ev@Base 0.2.6
 (optional=templinst|arch=!amd64 !x32|subst)_ZNSt17_Temporary_bufferIPN6marisa8grimoire4trie13WeightedRangeES3_EC1ES4_{ssize_t}@Base 0.2.6
 (optional=templinst|arch=!amd64 !x32|subst)_ZNSt17_Temporary_bufferIPN6marisa8grimoire4trie13WeightedRangeES3_EC2ES4_{ssize_t}@Base 0.2.6
 _ZNSt5dequeIN6marisa8grimoire4trie5RangeESaIS3_EE16_M_push_back_auxIJRKS3_EEEvDpOT_@Base 0.2.6
 (subst)_ZNSt5dequeIN6marisa8grimoire4trie5RangeESaIS3_EE17_M_reallocate_mapE{size_t}b@Base 0.2.6
 (optional=templinst|arch=!x32)_ZNSt5queueIN6marisa8grimoire4trie5RangeESt5dequeIS3_SaIS3_EEEC1IS6_vEEv@Base 0.2.6
 (optional=templinst|arch=!x32)_ZNSt5queueIN6marisa8grimoire4trie5RangeESt5dequeIS3_SaIS3_EEEC2IS6_vEEv@Base 0.2.6
 (optional=templinst|arch=armel armhf hurd-i386 i386 m68k mipsel powerpc)_ZSt13__heap_selectIPSt4pairIjjEN9__gnu_cxx5__ops15_Iter_less_iterEEvT_S6_S6_T0_@Base 0.2.6
 _ZTIN6marisa9ExceptionE@Base 0.2.6
 _ZTSN6marisa9ExceptionE@Base 0.2.6
 _ZTVN6marisa9ExceptionE@Base 0.2.6
 _ZZN6marisa8grimoire4trie6Header10get_headerEvE3buf@Base 0.2.6
